(lp0
L7265086739L
aL7296128016L
aL4389865079L
aI1217164758
aL7297015865L
aL5351076265L
aL4059498299L
aL6056678478L
aL4561416743L
aL6772093350L
aL4042000249L
aL6624871675L
aL6263959348L
aL5542161529L
aL4662266568L
aI2004013248
aI531482632
aI1998537240
aL2233210494L
aL3427169593L
aL6560750113L
aL5831318470L
aL7280454831L
aI1707193564
aI1490570006
aL7184397526L
aL3455819392L
aL7202057263L
aL3135163208L
aI324219387
aL7296618345L
aI2062093836
aL3967539778L
aL7296505970L
aL3059719174L
aL7143674052L
aL7281229255L
aL4099427771L
aL4821874594L
aI224382192
aL7296061926L
aL4252719867L
aL5705752080L
aL4476820776L
aL3083189912L
aL6944171226L
aL3762082995L
aL3998905758L
aL7288731572L
aL3536644133L
aL5653630450L
aL6552010887L
aI890612834
aL6211279148L
aL6747163826L
aI968127334
aL4422118274L
aL6307582152L
aL7237138562L
aL5608098347L
aI1503606552
aL3543199840L
aI1837776166
aL4684304650L
aL3529824652L
aI861998684
aI204784721
aL2254948111L
aL7275400868L
aL7126573750L
aL7127431347L
aL6266740847L
aL5999164173L
aL7290834371L
aL3264519860L
aI1632173566
aL3259515674L
aL4002342850L
aL7229034637L
aL6349728338L
aL6241319596L
aI1337036190
aI1951487727
aL6730842080L
aI373174223
aI259176874
aI227914191
aL2986243002L
aI198428972
aL3533767310L
aL7190961961L
aI1788556935
aI364850550
aL7284655450L
aI1635076643
aL3485917202L
aL7274190192L
aL6185199090L
aI581913232
aL4061971374L
aL7277301132L
aL7096546834L
aL7225353269L
aI1471908955
aL7286344735L
aI596506763
aL7173717775L
aL4910476813L
aL7042216194L
aI216436401
aL3528198350L
aI1633025748
aL7285310448L
aL7222444238L
aL5760117883L
aL3969129045L
aL7291992899L
aI375268727
aI1515413194
aI335797340
aL5528058846L
aL6629295491L
aI1610121349
aL6780040529L
aL3139161466L
aI1475330853
aL6324592955L
aI1351857272
aL3978077472L
aL7014293936L
aL5668432718L
aL4620101102L
aL7292369577L
aL3104998784L
aI537074096
aL2281292739L
aL7266654909L
aL4161089771L
aL4046454975L
aL6892291700L
aL2220476259L
aI241232569
aL3317973169L
aL2939300832L
aL7197391417L
aL2869087971L
aI2124372265
aL5470661387L
aL5373599308L
aL7290961270L
aL6813851170L
aL5851319107L
aL7107543866L
aL6171684969L
aL3496051628L
aL4709103346L
aL3611699457L
aL7290027743L
aL7291130532L
aL7206979022L
aL4324139649L
aL7228768118L
aI840271077
aL4632040896L
aL7292128754L
aL3102141291L
aL7289792091L
aL3909863167L
aL6976726590L
aL3694531061L
aL2366075929L
aI651943794
aL4250594469L
aL6661167766L
aL3996268474L
aL5759882886L
aI1653676165
aI1583305414
aI1397945422
aI381360218
aL5557092730L
aI214396472
aL7245603025L
aI1320183313
aI2123978247
aL3400074323L
aI205372484
aL2951474663L
aL6645010799L
aL7284215524L
aL4336122870L
aL6817785618L
aL7281888043L
aI1014829294
aL7055704141L
aL7073217948L
aL6325516654L
aL6664720120L
aL3222439175L
aI519761140
aI1928646738
aL5851490964L
aL6634629669L
aL5851326306L
aI699530414
aL3988505612L
aL7296070155L
aL2281622098L
aI482208216
aL3018594935L
aL4477423811L
aL4755474095L
aL4806689064L
aL7223567284L
aL3865866059L
aI543006257
aL7287132640L
aL7296706792L
aL7296375228L
aL5087412219L
aL6080433698L
aI1615969394
aI272227564
aL6655423785L
aL7297121615L
aL7203946832L
aL5426770798L
aL5861140712L
aL7249355223L
aL7276183090L
aL7295754180L
aI2032261946
aL7194785748L
aL7295898263L
aL3554738917L
aL7294194040L
aL7295963543L
aI2095841674
aL3556775541L
aL6068618841L
aL3545034382L
aL6839987663L
aL6665741278L
aL5356277585L
aL7171202288L
aI1537906186
aL5995867897L
aL6909414291L
aL3923987888L
aI1721156425
aL6091353556L
aL4491675782L
aI215383950
aI29258476
aI178440141
aL5714113872L
aL6683148617L
aL3753649575L
aL7288577463L
aL2869333770L
aI365011324
aI688772755
aL6186121951L
aI1387530496
aL7297032690L
aL4442075817L
aL3612445136L
aL6975346507L
aI1548629900
aI1781678684
aL6007449615L
aL5905357257L
aL7153937071L
aL6894229677L
aL6017421722L
aL3212805426L
aI528466535
aL7288932026L
aI1953354385
aI1036188082
aL5388356758L
aL6438630203L
aL7273699055L
aL7250203450L
aL3582295860L
aL5606855052L
aL6810546015L
aL7285400318L
aL3064232999L
aL4876701306L
aL4098452926L
aL6626356094L
aL4658744693L
aL7274845193L
aL3305313614L
aI1109970141
aI483116279
aL7239359200L
aL7235138870L
aL7204110865L
aL2951588976L
aL7292377530L
aL7177979596L
aL6942492889L
aI2070827952
aL7295534972L
aL2978115543L
aL2514157704L
aL7297214624L
aL4344028244L
aL6310317028L
aL5610450724L
aI1695477705
aI40926736
aL7096883406L
aL4527437132L
aL6846069747L
aL6953262223L
aI1702223226
aL7224901550L
aL4088974115L
aI1582595811
aL5624815545L
aL4614086288L
aL4674654801L
aI1246561166
aL2526155821L
aL3066770939L
aL2295902673L
aL6031618283L
aL6965924801L
aL7147897529L
aL7032335153L
aL7294242168L
aL7271400851L
aL5190539293L
aL7218644376L
aL5847277412L
aL3298038161L
aL7205753553L
aL3046584894L
aL5981869424L
aI7449589
aL5627453953L
aL3298072141L
aL2887073159L
aI968651599
aI1580457365
aL5623149951L
aL4357722957L
aI28794689
aL4779517371L
aL7296388993L
aL3190952239L
aI1121419348
aL3541074448L
aL3274537613L
aL6289017024L
aL7193979061L
aL4876081563L
aI1671172784
aI719081573
aL7207072028L
aL7068280595L
aL4457071287L
aL7246841685L
aL5524697667L
aL7295910167L
aL4241281200L
aL7289260814L
aI2021044556
aL7126447998L
aI1412660250
aL3751465827L
aL7158401881L
aL7295273891L
aI1995089513
aI1356862516
aL6961652587L
aL5480821825L
aL7295198604L
aL7172347290L
aL5390802015L
aL7022250400L
aL7295050925L
aL4457940193L
aL7295357784L
aL2300968982L
aL7294835322L
aL5572180785L
aL4317548727L
aL6901756621L
aL7172154230L
aI1214478007
aL5828103734L
aL4035838344L
aL6124091313L
aI1577850683
aL4466610785L
aI1781307613
aL7100165643L
aL4756925835L
aL6866661650L
aL7001834037L
aL7086904792L
aI1149028382
aL4334845739L
aI1550978039
aL4047284561L
aL5581391141L
aL6174252993L
aL5412642894L
aL4473296900L
aL5484118434L
aL6307582152L
aI1728721859
aL5951983270L
aL6054893363L
aL6311077992L
aI272015965
aI1257310010
aL7097153520L
aL4910476813L
aL4144755288L
aI1910435868
aI286256346
aL6819926503L
aL4769396232L
aL7289226505L
aL7077130341L
aL3658330343L
aL7289980190L
aL7289409460L
aL6215953803L
aI1805158333
aL6910874828L
aL6956966224L
aL4214988063L
aI1221464542
aL2223101411L
aL7188392215L
aL6625132004L
aL6202113540L
aL5823127120L
aL7159208336L
aL6330938017L
aL7244771293L
aL2355282674L
aL4190704484L
aL6211427346L
aL7288255892L
aL3454076082L
aL7083619813L
aL6909359206L
aL2498342731L
aI1401503934
aL7167899091L
aL6970432689L
aL5451304987L
aL5494281031L
aI1994754109
aI1508207322
aL5985520856L
aI1386604818
aL4517561711L
aL6988785386L
aL2257915140L
aL2152557065L
aL6188601718L
aL3880177940L
aL7270093837L
aL4156371859L
aL6474910068L
aL6646375723L
aL7228287029L
aL7207003665L
aL7152514901L
aI1264648088
aL5850564303L
aL4716031247L
aL7284658202L
aL7283957796L
aL7179243543L
aL2298107107L
aI242126687
aL7067992239L
aL6372920239L
aL2972102699L
aL7283112816L
aL6700722508L
aL2645641016L
aL2345403322L
aL6322799390L
aI495475153
aI1317529055
aL7220545450L
aL7196475230L
aL6958864049L
aL6327553203L
aL7107588206L
aL6028186190L
aI1812731396
aI1499845371
aL6085963267L
aL4276955631L
aL2942747573L
aI1718659930
aL6996190830L
aL2463014010L
aL6055700024L
aI1537394938
aI205045554
aL6016187530L
aI589150199
aI1974351949
aL3859796941L
aI575997879
aL6877668227L
aI295358096
aL6800949798L
aL7156502108L
aL7277586321L
aL3138206979L
aL7276804972L
aL5879047313L
aL4476656182L
aL5795151192L
aL4087822088L
aL3869285674L
aI467865388
aI313908914
aL7212711603L
aI1959438879
aL7136633718L
aL5883501096L
aI2077512508
aL5448080265L
aL7105006212L
aL7058858943L
aL5488364023L
aL6627435200L
aL5745268384L
aI1648035477
aL2276021451L
aL3578456709L
aL6526393928L
aL4466283675L
aL7222077691L
aL7174304992L
aI29115027
aL7086932336L
aL3608819601L
aL4037529844L
aL3106209163L
aL6008715765L
aI448374828
aL4575170285L
aL2514145753L
aL6672581836L
aL7189802254L
aL7163542769L
aL7256256725L
aI458552360
aI1118082674
aL6177622296L
aI55604050
aL5732410181L
aI1376577246
aI2074113861
aL6843544047L
aI1603895607
aL7258971158L
aL4828172972L
aL7270107992L
aL6164873587L
aL5162650311L
aI217178805
aI1519506461
aL6950868360L
aL6494070612L
aL7268735434L
aL5451016498L
aI1701933970
aL2579872483L
aI53456577
aI1000997452
aL6335985861L
aL4361499204L
aL4481804804L
aL7007318684L
aL6266740847L
aL3944573884L
aI2108895724
aL7267498805L
aL5381061645L
aI1389069762
aL7177507035L
aL7207086034L
aL7045555567L
aI1043062983
aI628120560
aL6737496081L
aI798360289
aL6653433055L
aL6185788819L
aL5888430543L
aL6894166277L
aL4085710117L
aL6081840193L
aI312453115
aL7189118549L
aL2292632271L
aL6340497458L
aI1062261240
aI254124607
aI767778442
aL5904800798L
aI2067938347
aL2958676702L
aL3483535349L
aL2228598719L
aI973992554
aI224226784
aL5632388071L
aI499657148
aL4339646751L
aL5622735412L
aL2761234277L
aI1953877176
aI1605630935
aL7286938537L
aI1392281650
aI1080502120
aL6522584586L
aL7295580410L
aL5388421740L
aL2242020928L
aI561288940
aI1718890949
aL3869496584L
aL4581616032L
aL3108163247L
aL5475393606L
aL3504981568L
aL6965186755L
aI339026615
aL7268088311L
aL7058746521L
aL7290330746L
aI1694233981
aL3220329088L
aL3663237499L
aI272170323
aI522479089
aL2264035906L
aL2324463425L
aL5725491530L
aI321343295
aI434281603
aL6202457944L
aL3535473458L
aI1294401689
aL6952928359L
aL5674316050L
aL7005261464L
aL3107649374L
aI2050241242
aL7290787394L
aL2226045490L
aI1651067801
aI271596487
aL2541532477L
aL3106906152L
aI251494978
aI1254559952
aI1939086805
aL2304316104L
aL4029414399L
aL2214269339L
aL6943534761L
aL5340120507L
aL6854879640L
aI240464118
aL2174320717L
aI1644615491
aL6333237856L
aL6899510996L
aL7292324661L
aL5512720180L
aI1202506478
aI1929475416
aL7291439915L
aL2152866470L
aL4494862707L
aL7292461725L
aI1821985811
aL6914099357L
aI402362411
aI2031324922
aI2085295718
aI381590220
aI705984682
aI51644815
aL6764675425L
aL2264222794L
aI319228360
aI596290995
aI554026327
aL2308350012L
aL6319256884L
aI1009903068
aL7291429719L
aI967768656
aI1753171873
aI1767530924
aI239827340
aL5813725700L
aL4337689197L
aI1999842283
aI1742243744
aL6295354344L
aI829148113
aI15913359
aL4946350814L
aL2323325438L
aI921075780
aL3070570358L
aL6882648268L
aL7288128728L
aI1394990150
aL6385700948L
aL5736907468L
aI1116221301
aL2166742738L
aL4068909110L
aI1687749883
aL6067371756L
aL6022979095L
aI19552476
aL6886285046L
aL7288790693L
aL3926226211L
aL7290474779L
aL7106450019L
aL6557996359L
aI2066490209
aL5603639206L
aL7291137308L
aL5776183015L
aL5919951176L
aL5428818629L
aL7146716612L
aL6617939235L
aI1683880591
aL5709168087L
aI657628606
aL6842738741L
aL3971040924L
aL7254714460L
aL6763360972L
aL4633257497L
aL3183729695L
aI1105329676
aL4223315510L
aL7289482483L
aL7288745408L
aI1770231663
aI1424993192
aL3263935459L
aI2082678386
aI509364249
aL5426541819L
aL7289733345L
aI1376616039
aL6196115310L
aL2200441528L
aL5511631966L
aL6344726038L
aI1280047455
aI262998620
aL2160221250L
aL7288164034L
aL7149047448L
aI226294607
aL6266998723L
aI270559851
aL7015037742L
aL7136247069L
aI1073580617
aL3496109854L
aI467750640
aL7287046504L
aI396545455
aI2105377860
aL4281422778L
aL7287837926L
aI369542776
aI528712438
aI1799461733
aL7249866512L
aL5866155107L
aI1778460213
aL6993235146L
aL2895649047L
aI430244273
aL4628104843L
aL4038149102L
aL5365527290L
aI1957359218
aL3102184712L
aI1806075009
aL3618051890L
aL7291436693L
aL7297963072L
aL7295010400L
aI1525802663
aI242289913
aL3036205626L
aL6199935275L
aI579055070
aL7292175204L
aL7140766599L
aI1655318276
aL4214683368L
aI1279882000
aI283478139
aL4143960555L
aL5569643235L
aL4090486973L
aL4276981379L
aL7294896517L
aL6059944669L
aL3578581376L
aL3428749156L
aL2213375999L
aL7135923519L
aI292406030
aL4462062005L
aL3101998412L
aI1609001907
aL4936394771L
aL7203475485L
aL6872683842L
aL7287204457L
aL7081327820L
aL5983268939L
aI1723903846
aI330764032
aL5564533775L
aI1631815649
aL7277331570L
aI213115159
aL4010395576L
aI2033100611
aL6273278499L
aL7001799588L
aL6487165419L
aL7292100319L
aL7117569427L
aL4353743824L
aL4093595586L
aI2103965333
aL5508445336L
aL6364805303L
aL5703273805L
aL6737633658L
aL6821320049L
aL5337921807L
aL7291796126L
aL7047038293L
aL5708069587L
aL3999706540L
aI1997813554
aL3631132044L
aI1331188382
aL3667939699L
aI1432768200
aI414913981
aL5584319796L
aL3997180318L
aL7049425118L
aL7283518241L
aL6340634243L
aI1094233870
aI1669439302
aI652165091
aL2284503285L
aI1493102436
aL7297335803L
aL3000086070L
aL7100345943L
aL7294848910L
aL7141265360L
aL6808980627L
aL4653263228L
aI314856778
aI1979331406
aL3578756555L
aI187841494
aL5461598775L
aI2142140266
aL7154075788L
aL7289201130L
aL6863126082L
aI1783867455
aI597830354
aI1690559018
aL6936743110L
aL6160227343L
aI1440896837
aL7295793683L
aL7218721556L
aL5500411186L
aI1422366489
aL5478097067L
aI221691183
aL7094756720L
aI2089866824
aL3507402672L
aL4659628397L
aL4105864353L
aI1078023912
aL4271040951L
aI1596596374
aI289200186
aL3310304754L
aL5874226100L
aI1596770233
aL5520917650L
aL7280641347L
aL2875692928L
aL3872221438L
aL6825745240L
aI1029502728
aI1495817410
aL7042279809L
aL6902552825L
aL7225656388L
aL5772077369L
aI1422062823
aL7164320729L
aL7289890569L
aL7284770254L
aI2078027282
aL2701442974L
aL7246480827L
aI820286615
aL7130460131L
aL6840869245L
aL4314019670L
aI575000577
aI1587954731
aL7296926472L
aL5930139723L
aL2728299784L
aI365314146
aL6018555261L
aI1608518279
aL4792463337L
aL7294558129L
aL6416758644L
aL4153136590L
aL3854501981L
aI567231986
aL7218338385L
aL5736469346L
aI1401418191
aI1414851532
aL7296769927L
aL5034156718L
aL7294175716L
aL6330008518L
aI324593647
aL7292184556L
aL5774401193L
aL7296048695L
aI978332304
aI16516516
aL5581527645L
aI382741142
aL7286002533L
aL3949021398L
aL2261316299L
aL6488351735L
aL7295813366L
aI800619158
aI1260284365
aL3070216775L
aL3603704837L
aI1649207765
aL7097296179L
aL7295862453L
aL7205028864L
aL2315489133L
aL7161271644L
aL3941481858L
aI145427577
aL6834525233L
aL7296238355L
aI2117462225
aI2133415231
aL2257054139L
aL7156525772L
aL7154233035L
aL7296998401L
aL7289467234L
aL7282306889L
aI13996004
aL3509427800L
aL4696100612L
aL4167809220L
aL7297342969L
aI581460954
aL4276318581L
aI1697088268
aL3607625077L
aL3238073317L
aL4993435641L
aL2542286532L
aL4411615831L
aL5385168331L
aL3660566595L
aL7292175204L
aL5353091125L
aL2208685843L
aL5758657891L
aL4288792877L
aL7295367710L
aL2380247519L
aL6906046185L
aI1992720658
aI1838326539
aL3494354999L
aL4001388709L
aI1781558648
aI2076203356
aL7293823125L
aL3220025969L
aL3193197640L
aL4790540366L
aL4278195055L
aL4120791746L
aL7237729203L
aI1478659783
aI1387865620
aL7293431517L
aL3428355639L
aI485954904
aL5900738798L
aI1471859997
aI284204062
aL2874804985L
aL7296538227L
aL3264074138L
aL4209039516L
aL5681015708L
aL7280935191L
aL7294976957L
aL3284511067L
aL4359108379L
aL7295740100L
aI1444470705
aL7289877059L
aL6386687543L
aL3019664268L
aL6946219586L
aL4200846426L
aL4099533617L
aL6672838680L
aL7295086989L
aL6337157843L
aL4038485124L
aI320613060
aL2262738165L
aI1652372537
aL2273892537L
aL6760142793L
aI279045129
aL7297338290L
aL5474937024L
aL7296471408L
aL4203269013L
aL5893171119L
aL3300981836L
aL3438801997L
aL5858415754L
aL7055675477L
aL5542701064L
aL5375711457L
aL7296180112L
aL6939111972L
aL4152345832L
aL6817033273L
aI1340258233
aL3216405002L
aL2190024489L
aI1417604774
aL2984338306L
aL5479102199L
aL2304248650L
aI1943880643
aL3995359733L
aL7295376582L
aL7184527367L
aI1553651337
aL2924689546L
aL6804929527L
aL2315621772L
aL2937699447L
aL7209906229L
aI1981380567
aL7286821578L
aL4867709382L
aL5499546248L
aI547088845
aL4353916244L
aL3992211316L
aI1574423074
aL2948863231L
aI1147080832
aL5635726897L
aI231693783
aL7248624652L
aI470856624
aL3617931699L
aI2126715125
aL7287767334L
aL6171737741L
aL6043632743L
aL4898401431L
aI1998599357
aI462749064
aL7287126881L
aL7296030470L
aI1680193049
aI507037465
aI104757106
aL6640611589L
aL7286529444L
aL6870554552L
aL4195294107L
aI1782002876
aL6051285294L
aL4086757439L
aL5908445899L
aI1697759219
aL6917239198L
aL6792664826L
aI599509785
aI1591249172
aL4678713409L
aL7297103114L
aL6208263806L
aL5635567680L
aL6882109606L
aL6096610994L
aL4791574268L
aI726543687
aL4283154596L
aL3540216628L
aI2103346288
aL4066856589L
aI549450117
aL3663159281L
aI1709573304
aL7226339570L
aL2152740733L
aL7295925980L
aL2287399837L
aI1449512694
aL7295931828L
aL2367516870L
aI429834320
aI1231831246
aL6216275974L
aL7036858874L
aL2280428200L
aI1475333183
aI1994522673
aL7296127620L
aL4263501204L
aL3659595536L
aI866244577
aL4564067080L
aL6113428101L
aL7294340780L
aL6686424320L
aL7290545821L
aI2103854194
aL4608388574L
aL4294043225L
aL3447202092L
aL3764651652L
aL3509278790L
aL6051732706L
aI296818331
aI48435801
aI712361542
a.